; Function Attrs: mustprogress uwtable
define dso_local void @_ZN9CGContext19add_external_effectERK6Effect(ptr noundef nonnull align 8 dereferenceable(216) %0, ptr noundef nonnull align 8 dereferenceable(74) %1) local_unnamed_addr #4 align 2 {
  %3 = getelementptr inbounds nuw i8, ptr %0, i64 128
  %4 = load ptr, ptr %3, align 8
  %.not = icmp eq ptr %4, null
  br i1 %.not, label %6, label %5

5:                                                ; preds = %2
  tail call void @_ZN6Effect19add_external_effectERKS_(ptr noundef nonnull align 8 dereferenceable(74) %4, ptr noundef nonnull align 8 dereferenceable(74) %1)
  br label %6

6:                                                ; preds = %5, %2
  %7 = getelementptr inbounds nuw i8, ptr %0, i64 136
  tail call void @_ZN6Effect19add_external_effectERKS_(ptr noundef nonnull align 8 dereferenceable(74) %7, ptr noundef nonnull align 8 dereferenceable(74) %1)
  ret void
}